target datalayout = "e-m:e-p270:32:32-p271:32:32-p272:64:64-i64:64-i128:128-f80:128-n8:16:32:64-S128"
target triple = "x86_64-pc-linux-gnu"

%struct.atm_phdr = type { i32, i8, i8, i8, i16, i16, i8, i16, i16, i16, i16, i32 }

@.str.163 = private unnamed_addr constant [14 x i8] c"atm.aal5.type\00", align 1

; Function Attrs: null_pointer_is_valid sspstrong uwtable
define internal zeroext i1 @capture_atm(ptr noundef %0, i32 noundef %1, i32 noundef %2, ptr noundef %3, ptr noundef %4) #1 {
  %6 = alloca i1, align 1
  %7 = alloca ptr, align 8
  %8 = alloca i32, align 4
  %9 = alloca i32, align 4
  %10 = alloca ptr, align 8
  %11 = alloca ptr, align 8
  store ptr %0, ptr %7, align 8
  store i32 %1, ptr %8, align 4
  store i32 %2, ptr %9, align 4
  store ptr %3, ptr %10, align 8
  store ptr %4, ptr %11, align 8
  %12 = load ptr, ptr %11, align 8
  %13 = getelementptr inbounds nuw %struct.atm_phdr, ptr %12, i32 0, i32 1
  %14 = load i8, ptr %13, align 4
  %15 = zext i8 %14 to i32
  %16 = icmp eq i32 %15, 4
  br i1 %16, label %17, label %28

17:                                               ; preds = %5
  %18 = load ptr, ptr %11, align 8
  %19 = getelementptr inbounds nuw %struct.atm_phdr, ptr %18, i32 0, i32 2
  %20 = load i8, ptr %19, align 1
  %21 = zext i8 %20 to i32
  %22 = load ptr, ptr %7, align 8
  %23 = load i32, ptr %8, align 4
  %24 = load i32, ptr %9, align 4
  %25 = load ptr, ptr %10, align 8
  %26 = load ptr, ptr %11, align 8
  %27 = call zeroext i1 @try_capture_dissector(ptr noundef @.str.163, i32 noundef %21, ptr noundef %22, i32 noundef %23, i32 noundef %24, ptr noundef %25, ptr noundef %26)
  store i1 %27, ptr %6, align 1
  br label %29

28:                                               ; preds = %5
  store i1 false, ptr %6, align 1
  br label %29

29:                                               ; preds = %28, %17
  %30 = load i1, ptr %6, align 1
  ret i1 %30
}