; Function Attrs: null_pointer_is_valid sspstrong uwtable
define internal zeroext i1 @capture_atm(ptr noundef %0, i32 noundef %1, i32 noundef %2, ptr noundef %3, ptr noundef %4) #1 {
  %6 = getelementptr inbounds nuw i8, ptr %4, i64 4
  %7 = load i8, ptr %6, align 4
  %8 = icmp eq i8 %7, 4
  br i1 %8, label %9, label %14

9:                                                ; preds = %5
  %10 = getelementptr inbounds nuw i8, ptr %4, i64 5
  %11 = load i8, ptr %10, align 1
  %12 = zext i8 %11 to i32
  %13 = tail call zeroext i1 @try_capture_dissector(ptr noundef nonnull @.str.163, i32 noundef %12, ptr noundef %0, i32 noundef %1, i32 noundef %2, ptr noundef %3, ptr noundef %4)
  br label %14

14:                                               ; preds = %5, %9
  %.0 = phi i1 [ %13, %9 ], [ false, %5 ]
  ret i1 %.0
}